(lp0
(lp1
S'rec.sport.baseball'
p2
ag2
aa(lp3
g2
ag2
aa(lp4
g2
ag2
aa(lp5
S'comp.windows.x'
p6
aS'comp.graphics'
p7
aa(lp8
g7
aS'sci.med'
p9
aa(lp10
g7
ag6
aa(lp11
g7
ag7
ag6
ag6
aa(lp12
g2
ag2
ag2
ag2
aa(lp13
g7
ag2
ag9
ag2
ag2
ag2
aa(lp14
g9
ag9
ag9
ag9
aa(lp15
g2
ag9
ag9
ag9
ag2
ag2
ag9
aa(lp16
g7
ag9
ag2
ag2
ag7
ag2
ag2
ag2
ag6
ag7
ag9
ag7
ag2
ag6
ag6
ag2
ag9
ag9
ag6
ag9
ag2
ag7
ag2
ag2
ag2
ag9
ag9
ag2
ag7
ag9
ag2
ag2
ag9
ag2
ag9
ag7
ag2
ag2
ag9
ag2
ag7
ag2
ag2
ag9
ag7
ag2
ag2
ag6
ag7
ag6
ag2
ag2
ag2
ag2
ag2
ag2
ag2
ag2
ag2
ag2
ag2
ag2
ag2
ag2
ag2
ag2
ag2
ag2
ag2
ag2
ag2
ag2
ag2
ag2
ag2
ag2
ag2
ag2
ag6
ag2
ag6
ag7
ag6
ag7
ag7
ag7
ag7
ag2
ag2
ag2
ag2
ag9
ag2
ag6
ag2
ag2
ag2
ag2
ag2
ag2
ag2
ag9
ag9
ag9
ag9
ag9
ag9
ag6
ag2
ag7
ag7
ag7
ag2
ag2
ag2
ag2
ag9
ag7
ag7
ag2
ag2
ag6
ag6
ag7
ag7
ag6
ag6
ag6
ag7
ag9
ag2
ag9
ag9
ag2
ag9
ag6
ag7
ag6
ag6
ag6
ag6
ag6
ag6
ag7
ag2
ag2
ag2
ag2
ag2
ag6
ag6
ag9
ag6
ag2
ag7
ag6
ag6
ag7
ag6
ag2
ag2
ag6
ag2
ag6
ag9
ag7
ag2
ag2
ag6
ag6
ag9
ag2
ag9
ag9
ag9
ag2
ag9
ag2
ag2
ag9
ag7
ag7
ag2
ag2
ag7
ag2
ag6
ag2
ag7
ag9
ag9
ag2
ag9
ag7
ag9
ag6
ag9
ag7
ag6
ag6
ag9
ag2
ag2
ag2
ag9
ag2
ag2
ag2
ag6
ag2
ag2
ag2
ag2
ag2
ag2
ag9
ag6
ag6
ag7
ag2
ag6
ag6
ag7
ag7
ag9
ag9
ag7
ag2
ag2
ag2
ag2
ag2
ag2
ag2
ag9
ag7
ag6
ag6
ag2
ag9
ag9
ag6
ag2
ag6
ag2
ag6
ag7
ag7
ag2
ag2
ag7
ag7
ag6
ag9
ag2
ag2
ag9
ag2
ag7
ag6
ag6
ag2
ag6
ag6
ag9
ag2
ag9
ag7
ag2
ag7
ag9
ag7
ag7
ag2
ag2
ag2
ag2
ag2
ag9
ag7
ag2
ag7
ag7
ag7
ag9
ag2
ag2
ag2
ag2
ag6
ag2
ag6
ag2
ag6
ag6
ag6
ag6
ag9
ag9
ag7
ag9
ag2
ag6
ag9
ag2
ag6
ag7
ag2
ag7
ag2
ag7
ag7
ag6
ag6
ag9
ag2
ag9
ag7
ag6
ag6
ag6
ag2
ag9
ag6
ag9
ag2
ag2
ag2
ag2
ag7
ag7
ag7
ag9
ag2
ag7
ag9
ag7
aa(lp17
g2
ag2
aa(lp18
g2
ag6
aa(lp19
g9
ag7
aa(lp20
g6
ag2
aa(lp21
g7
ag2
aa(lp22
g2
ag7
aa(lp23
g7
ag7
aa(lp24
g9
ag2
aa(lp25
g9
ag9
aa(lp26
g2
ag2
aa(lp27
g2
ag2
aa(lp28
g9
ag2
aa(lp29
g2
ag2
aa(lp30
g9
ag2
aa(lp31
g6
ag7
aa(lp32
g2
ag2
aa(lp33
g2
ag2
aa(lp34
g6
ag6
aa(lp35
g6
ag9
aa(lp36
g2
ag7
aa(lp37
g2
ag6
aa(lp38
g2
ag2
ag2
ag9
ag6
ag7
ag6
ag7
ag2
ag2
aa(lp39
g2
ag6
ag7
ag7
ag2
aa(lp40
g2
ag6
ag7
ag9
ag2
aa(lp41
g9
ag7
ag2
ag6
ag6
ag6
ag6
ag2
ag2
ag9
ag7
ag7
ag2
ag7
ag9
ag7
ag6
ag6
ag6
ag9
ag9
ag9
ag9
ag2
ag6
ag2
ag6
ag9
ag6
ag9
ag7
ag6
ag7
ag7
ag2
ag7
ag2
ag6
ag2
ag2
ag2
ag9
ag7
ag2
ag2
ag7
ag9
ag2
ag6
ag9
ag2
ag6
ag7
ag2
ag2
ag9
ag7
ag6
ag7
ag6
ag9
ag6
ag2
ag2
ag7
ag2
ag6
ag9
ag7
ag6
ag2
ag9
ag2
ag2
ag9
ag2
ag9
ag2
ag6
ag9
ag9
ag2
ag7
ag2
ag9
ag9
ag2
ag7
ag7
ag9
ag7
ag6
ag2
ag6
ag6
ag2
ag2
ag9
ag2
ag2
ag2
ag2
ag7
ag9
ag2
ag9
ag2
ag6
ag7
ag7
ag6
ag6
ag2
ag9
ag2
ag7
ag2
ag2
ag9
ag9
ag2
ag7
ag2
ag2
ag2
ag2
ag2
ag6
ag9
ag9
ag2
ag2
ag2
ag2
ag7
ag6
ag2
ag9
ag2
ag6
ag7
ag7
ag7
ag7
ag6
ag6
ag9
ag2
ag7
ag2
ag6
ag2
ag2
ag2
ag2
ag7
ag2
ag2
ag9
ag7
ag9
ag2
ag2
ag9
ag6
ag6
ag9
ag2
ag2
ag7
ag9
ag2
ag7
ag7
ag2
ag9
ag9
ag9
ag2
ag2
ag2
ag2
ag7
ag6
ag2
ag2
ag2
ag2
ag2
ag2
ag9
ag9
ag2
ag6
ag2
ag7
ag2
ag2
ag7
ag6
ag6
ag7
ag7
ag6
ag7
ag2
ag2
ag7
ag2
ag2
ag2
ag2
ag2
ag9
ag9
ag6
ag7
ag9
ag9
ag2
ag2
ag2
ag9
ag9
ag2
ag2
ag2
ag9
ag2
ag2
ag6
ag7
ag7
ag6
ag9
ag6
ag2
ag2
ag6
ag7
ag7
ag2
ag7
ag9
ag9
ag9
ag9
ag2
ag2
ag2
ag9
ag2
ag2
ag6
ag7
ag6
ag2
ag9
ag6
ag2
ag9
ag2
ag2
ag6
ag9
ag9
ag9
ag2
ag2
ag2
ag2
ag6
ag2
ag2
ag2
ag2
ag2
ag2
ag7
ag2
ag2
ag2
ag6
ag2
ag6
ag2
ag7
ag6
ag6
ag2
ag7
ag7
ag9
ag6
ag6
ag2
ag2
ag9
ag7
ag6
ag6
ag2
ag2
ag7
ag2
ag2
ag2
ag9
ag9
ag9
ag2
ag2
ag6
ag9
ag6
ag2
ag6
ag6
ag2
ag7
ag2
ag7
ag6
ag7
ag2
ag2
ag9
ag2
ag9
ag2
ag7
ag7
ag2
ag7
ag9
ag6
ag9
ag7
aa(lp42
g2
ag2
aa(lp43
g6
ag9
aa(lp44
g6
ag2
aa(lp45
g6
ag6
aa(lp46
g7
ag2
aa(lp47
g2
ag6
aa(lp48
g6
ag2
ag2
aa(lp49
g2
ag2
ag2
ag6
aa(lp50
g7
ag2
ag7
ag9
aa(lp51
g6
ag2
ag9
ag9
aa(lp52
g9
ag9
ag7
ag7
aa(lp53
g7
ag2
ag9
ag6
aa(lp54
g2
ag9
ag7
ag9
aa.