(lp0
(lp1
S'comp.windows.x'
p2
ag2
aa(lp3
S'comp.graphics'
p4
aS'rec.sport.baseball'
p5
aa(lp6
g5
ag2
aa(lp7
g2
ag5
ag5
aa(lp8
g5
ag5
ag5
ag2
aa(lp9
g4
ag5
ag4
aS'sci.med'
p10
aa(lp11
g2
ag5
ag10
ag10
aa(lp12
g10
ag10
ag4
ag4
aa(lp13
g4
ag5
ag10
ag2
aa(lp14
g5
ag10
ag4
ag10
aa(lp15
g5
ag5
ag5
ag5
aa(lp16
g2
ag4
ag5
ag5
aa(lp17
g4
ag2
ag4
ag10
aa(lp18
g5
ag5
ag5
ag5
ag4
ag4
ag2
ag2
aa(lp19
g10
ag10
ag10
ag10
ag4
ag5
ag10
ag5
ag5
ag5
aa(lp20
g4
ag10
ag5
ag5
ag4
ag5
ag5
ag5
ag2
ag4
ag10
ag4
ag5
ag2
ag2
ag5
ag10
ag10
ag2
ag10
ag5
ag4
ag5
ag5
ag5
ag10
ag10
ag5
ag4
ag10
ag5
ag5
ag10
ag5
ag10
ag4
ag5
ag5
ag10
ag5
ag4
ag5
ag5
ag10
ag4
ag5
ag5
ag2
ag4
ag2
ag5
ag5
ag5
ag5
ag5
ag5
ag5
ag5
ag5
ag5
ag5
ag5
ag5
ag5
ag5
ag5
ag5
ag5
ag5
ag5
ag5
ag5
ag5
ag5
ag5
ag5
ag5
ag5
ag2
ag5
ag2
ag4
ag2
ag4
ag4
ag4
ag4
ag5
ag5
ag5
ag5
ag10
ag5
ag2
ag5
ag5
ag5
ag5
ag5
ag5
ag5
ag10
ag10
ag10
ag10
ag10
ag10
ag2
ag5
ag4
ag4
ag4
ag5
ag5
ag5
ag5
ag10
ag4
ag4
ag5
ag5
ag2
ag2
ag4
ag4
ag2
ag2
ag2
ag4
ag10
ag5
ag10
ag10
ag5
ag10
ag2
ag4
ag2
ag2
ag2
ag2
ag2
ag2
ag4
ag5
ag5
ag5
ag5
ag5
ag2
ag2
ag10
ag2
ag5
ag4
ag2
ag2
ag4
ag2
ag5
ag5
ag2
ag5
ag2
ag10
ag4
ag5
ag5
ag2
ag2
ag10
ag5
ag10
ag10
ag10
ag5
ag10
ag5
ag5
ag10
ag4
ag4
ag5
ag5
ag4
ag5
ag2
ag5
ag4
ag10
ag10
ag5
ag10
ag4
ag10
ag2
ag10
ag4
ag2
ag2
ag10
ag5
ag5
ag5
ag10
ag5
ag5
ag5
ag2
ag5
ag5
ag5
ag5
ag5
ag5
ag10
ag2
ag2
ag4
ag5
ag2
ag2
ag4
ag4
ag10
ag10
ag4
ag5
ag5
ag5
ag5
ag5
ag5
ag5
ag10
ag4
ag2
ag2
ag5
ag10
ag10
ag2
ag5
ag2
ag5
ag2
ag4
ag4
ag5
ag5
ag4
ag4
ag2
ag10
ag5
ag5
ag10
ag5
ag4
ag2
ag2
ag5
ag2
ag2
ag10
ag5
ag10
ag4
ag5
ag4
ag10
ag4
ag4
ag5
ag5
ag5
ag5
ag5
ag10
ag4
ag5
ag4
ag4
ag4
ag10
ag5
ag5
ag5
ag5
ag2
ag5
ag2
ag5
ag2
ag2
ag2
ag2
ag10
ag10
ag4
ag10
ag5
ag2
ag10
ag5
ag2
ag4
ag5
ag4
ag5
ag4
ag4
ag2
ag2
ag10
ag5
ag10
ag4
ag2
ag2
ag2
ag5
ag10
ag2
ag10
ag5
ag5
ag5
ag5
ag4
ag4
ag4
ag10
ag5
ag4
ag10
ag4
ag5
ag10
ag10
ag10
ag5
ag5
ag10
aa(lp21
g5
ag2
ag5
ag5
aa(lp22
g2
ag5
ag10
ag4
aa(lp23
g5
ag4
ag4
ag5
aa(lp24
g10
ag5
ag4
ag4
aa(lp25
g5
ag5
ag10
ag10
aa(lp26
g10
ag5
ag5
ag5
aa(lp27
g10
ag5
ag5
ag5
aa(lp28
g5
ag5
ag2
ag4
aa(lp29
g2
ag2
ag5
ag5
aa(lp30
g5
ag4
ag2
ag10
aa(lp31
g5
ag5
ag5
ag10
ag2
ag4
ag2
ag4
ag5
ag5
ag5
ag2
aa(lp32
g5
ag2
ag4
ag10
ag5
ag5
ag2
ag4
ag4
ag5
aa(lp33
g5
ag5
ag10
ag4
ag5
ag2
ag2
ag2
ag2
ag5
ag5
ag10
ag4
ag4
ag5
ag4
ag10
ag4
ag2
ag2
ag2
ag10
ag10
ag10
ag10
ag5
ag2
ag5
ag2
ag10
ag2
ag10
ag4
ag2
ag4
ag4
ag5
ag4
ag5
ag2
ag5
ag5
ag5
ag10
ag4
ag5
ag5
ag4
ag10
ag5
ag2
ag10
ag5
ag2
ag4
ag5
ag5
ag10
ag4
ag2
ag4
ag2
ag10
ag2
ag5
ag5
ag4
ag5
ag2
ag10
ag4
ag2
ag5
ag10
ag5
ag5
ag10
ag5
ag10
ag5
ag2
ag10
ag10
ag5
ag4
ag5
ag10
ag10
ag5
ag4
ag4
ag10
ag4
ag2
ag5
ag2
ag2
ag5
ag5
ag10
ag5
ag5
ag5
ag5
ag4
ag10
ag5
ag10
ag5
ag2
ag4
ag4
ag2
ag2
ag5
ag10
ag5
ag4
ag5
ag5
ag10
ag10
ag5
ag4
ag5
ag5
ag5
ag5
ag5
ag2
ag10
ag10
ag5
ag5
ag5
ag5
ag4
ag2
ag5
ag10
ag5
ag2
ag4
ag4
ag4
ag4
ag2
ag2
ag10
ag5
ag4
ag5
ag2
ag5
ag5
ag5
ag5
ag4
ag5
ag5
ag10
ag4
ag10
ag5
ag5
ag10
ag2
ag2
ag10
ag5
ag5
ag4
ag10
ag5
ag4
ag4
ag5
ag10
ag10
ag10
ag5
ag5
ag5
ag5
ag4
ag2
ag5
ag5
ag5
ag5
ag5
ag5
ag10
ag10
ag5
ag2
ag5
ag4
ag5
ag5
ag4
ag2
ag2
ag4
ag4
ag2
ag4
ag5
ag5
ag4
ag5
ag5
ag5
ag5
ag5
ag10
ag10
ag2
ag4
ag10
ag10
ag5
ag5
ag5
ag10
ag10
ag5
ag5
ag5
ag10
ag5
ag5
ag2
ag4
ag4
ag2
ag10
ag2
ag5
ag5
ag2
ag4
ag4
ag5
ag4
ag10
ag10
ag10
ag10
ag5
ag5
ag5
ag10
ag5
ag5
ag2
ag4
ag2
ag5
ag10
ag2
ag5
ag10
ag5
ag5
ag2
ag10
ag10
ag10
ag5
ag5
ag5
ag5
ag2
ag5
ag5
ag5
ag5
ag5
ag5
ag4
ag5
ag5
ag5
ag2
ag5
ag2
ag5
ag4
ag2
ag2
ag5
ag4
ag4
ag10
ag2
ag2
ag5
ag5
ag10
ag4
ag2
ag2
ag5
ag5
ag4
ag5
ag5
ag5
ag10
ag10
ag10
ag5
ag5
ag2
ag10
ag2
ag5
ag2
ag2
ag5
ag4
ag5
ag4
ag2
ag4
ag5
ag5
ag10
ag5
ag10
ag5
ag4
ag4
ag5
ag4
ag10
ag2
ag10
ag4
aa(lp34
g2
ag5
ag2
ag10
aa.