(lp0
(lp1
S'talk.religion.misc'
p2
aS'soc.religion.christian'
p3
aa(lp4
S'sci.med'
p5
aS'comp.windows.x'
p6
aa(lp7
g2
ag3
aa(lp8
g2
ag2
aa(lp9
g3
ag3
aa(lp10
g2
ag5
aa(lp11
S'comp.graphics'
p12
ag3
aa(lp13
g3
ag5
aa(lp14
g12
aS'rec.sport.baseball'
p15
aa(lp16
g6
ag6
ag12
aa(lp17
g15
ag15
ag3
ag12
ag15
ag5
ag15
ag5
aa(lp18
g15
ag15
ag15
ag15
ag15
ag15
ag15
ag15
ag15
ag15
ag15
ag15
ag15
ag15
ag15
ag15
ag5
ag6
ag15
ag15
ag15
ag15
ag3
ag2
ag3
ag6
ag6
ag2
ag2
ag3
ag3
ag3
ag2
ag3
ag3
ag3
ag3
ag3
ag3
ag2
ag3
ag2
ag3
ag3
ag3
ag3
ag3
ag3
ag3
ag3
ag3
ag3
ag3
ag2
ag3
ag2
ag3
ag3
ag3
ag3
ag3
ag2
ag3
ag2
ag3
ag3
ag3
ag3
ag2
ag3
ag2
ag3
ag3
ag3
ag3
ag2
ag3
ag3
ag3
ag3
ag3
ag2
ag3
ag3
ag3
ag3
ag3
ag15
ag15
ag3
ag2
ag3
ag3
ag3
ag3
ag2
ag2
ag2
ag3
ag3
ag3
ag2
ag3
ag2
ag2
ag15
ag15
ag5
ag2
ag2
ag2
ag5
ag5
ag12
ag5
ag15
ag5
ag15
ag2
ag12
ag3
ag15
ag3
ag3
ag3
ag2
ag3
ag15
ag2
ag15
ag2
ag3
ag2
ag3
ag2
ag6
ag3
ag3
ag12
ag2
ag2
ag15
ag15
ag3
ag3
ag12
ag3
ag3
ag2
ag2
ag3
ag12
ag15
ag5
ag3
ag2
ag5
ag12
ag6
ag6
ag6
ag6
ag15
ag2
ag2
ag2
ag2
ag3
ag3
ag3
ag3
ag2
ag15
ag2
ag3
ag2
ag3
ag3
ag6
ag2
ag3
ag2
ag15
ag3
ag15
ag15
ag2
ag15
ag5
ag2
ag2
ag3
ag2
ag12
ag15
ag3
ag2
ag3
ag12
ag12
ag12
ag15
ag3
ag12
ag12
ag12
ag2
ag15
ag2
ag2
ag2
ag3
ag2
ag5
ag5
ag2
ag3
ag12
ag15
ag12
ag2
ag2
ag3
ag2
ag2
ag5
ag15
ag3
ag2
ag15
ag15
ag2
ag2
ag3
ag2
ag2
ag5
ag2
ag2
ag3
ag3
ag5
ag2
ag2
ag2
ag2
ag2
ag3
ag3
ag2
ag3
ag2
ag3
ag3
ag6
ag15
ag3
ag3
ag3
ag5
ag3
ag15
ag3
ag3
ag6
ag2
ag12
ag3
ag2
ag2
ag3
ag12
ag15
ag3
ag15
ag15
ag3
ag3
ag2
ag3
ag3
ag15
ag5
ag5
ag3
ag15
ag3
ag2
ag15
ag2
ag12
ag2
ag3
ag2
ag2
ag3
ag2
ag3
ag3
ag3
ag3
ag3
ag6
ag15
ag3
ag3
ag2
ag2
ag5
ag5
ag6
ag6
ag3
ag2
ag2
ag3
ag2
ag15
ag2
ag2
ag3
ag3
ag6
ag12
ag12
ag12
ag6
ag12
ag3
ag2
ag2
ag3
ag15
ag3
ag6
ag6
ag5
ag6
ag6
ag6
ag2
ag2
ag3
ag2
ag2
aa(lp19
g15
ag15
aa(lp20
g5
ag3
aa(lp21
g2
ag3
aa(lp22
g2
ag2
aa(lp23
g2
ag2
aa(lp24
g2
ag5
aa(lp25
g12
ag3
aa(lp26
g2
ag3
aa(lp27
g2
ag3
aa(lp28
g2
ag3
aa(lp29
g3
ag15
aa(lp30
g3
ag3
aa(lp31
g3
ag3
aa(lp32
g12
ag3
aa(lp33
g2
ag3
aa(lp34
g2
ag3
aa(lp35
g3
ag3
aa(lp36
g2
ag15
aa(lp37
g15
ag3
aa(lp38
g6
ag12
aa(lp39
g3
ag12
aa(lp40
g15
ag2
aa(lp41
g6
ag12
ag2
ag2
aa(lp42
g3
ag15
ag2
ag3
ag3
ag5
aa(lp43
g3
ag15
ag3
ag2
ag15
ag3
ag12
ag3
ag2
ag2
ag2
ag2
ag3
ag15
ag15
ag2
ag3
ag2
ag5
ag6
ag15
ag5
ag3
ag3
ag15
ag15
ag3
ag2
ag5
ag3
ag2
ag3
ag3
ag2
ag3
ag15
ag2
ag15
ag2
ag3
ag3
ag2
ag2
ag3
ag3
ag15
ag3
ag2
ag3
ag3
ag3
ag12
ag2
ag3
ag3
ag12
ag2
ag3
ag6
ag2
ag6
ag2
ag15
ag2
ag3
ag5
ag3
ag3
ag3
ag3
ag2
ag15
ag2
ag15
ag2
ag15
ag3
ag15
ag2
ag12
ag12
ag3
ag3
ag3
ag2
ag12
ag2
ag3
ag2
ag2
ag6
ag12
ag5
ag3
ag6
ag6
ag2
ag2
ag2
ag6
ag5
ag6
ag3
ag12
ag3
ag3
ag15
ag3
ag3
ag15
ag2
ag5
ag15
ag3
ag2
ag3
ag3
ag12
ag3
ag3
ag3
ag2
ag15
ag2
ag5
ag3
ag2
ag2
ag2
ag6
ag2
ag2
ag12
ag15
ag3
ag3
ag2
ag6
ag3
ag5
ag15
ag3
ag3
ag2
ag6
ag6
ag2
ag5
ag3
ag15
ag15
ag3
ag3
ag3
ag15
ag3
ag3
ag6
ag5
ag3
ag15
ag3
ag2
ag2
ag3
ag2
ag12
ag2
ag3
ag2
ag3
ag3
ag3
ag3
ag2
ag3
ag3
ag2
ag12
ag15
ag15
ag2
ag2
ag3
ag2
ag15
ag15
ag3
ag15
ag15
ag2
ag3
ag2
ag5
ag12
ag3
ag15
ag3
ag3
ag2
ag15
ag12
ag3
ag2
ag15
ag3
ag2
ag5
ag12
ag2
ag15
ag15
ag3
ag12
ag5
ag2
ag15
ag3
ag2
ag3
ag2
ag5
ag5
ag2
ag3
ag2
ag3
ag6
ag3
ag6
ag3
ag2
ag12
ag2
ag3
ag6
ag15
ag2
ag2
ag2
ag2
ag2
ag3
ag5
ag2
ag12
ag3
ag6
ag3
ag3
ag3
ag3
ag12
ag3
ag3
ag15
ag2
ag2
ag5
ag15
ag12
ag5
ag3
ag6
ag15
ag2
ag3
ag3
ag3
ag15
ag6
ag6
ag3
ag3
ag3
ag3
ag3
ag2
ag3
ag15
ag15
ag5
ag2
ag3
ag3
ag2
ag2
ag3
ag12
ag3
ag15
ag3
ag6
ag12
ag2
ag15
ag5
ag15
ag3
ag3
ag2
ag3
ag2
ag3
ag12
ag2
ag15
ag15
ag6
ag6
ag3
ag12
ag3
ag15
ag2
ag12
ag3
ag15
ag2
ag2
ag3
ag2
ag3
ag2
ag15
ag2
ag3
ag3
ag2
ag15
ag15
ag5
ag2
ag3
ag2
ag3
ag3
ag6
ag12
ag15
ag15
ag2
ag2
ag6
ag2
ag5
aa(lp44
g3
ag15
aa(lp45
g3
ag3
aa(lp46
g2
ag6
aa(lp47
g3
ag15
aa(lp48
g2
ag3
aa(lp49
g3
ag15
aa(lp50
g3
ag2
ag2
aa(lp51
g3
ag5
ag15
ag12
aa(lp52
g2
ag6
ag2
ag6
aa(lp53
g3
ag2
ag15
ag3
aa(lp54
g12
ag2
ag12
ag2
aa(lp55
g2
ag2
ag12
ag3
aa(lp56
g6
ag12
ag2
ag2
aa.